target datalayout = "e-m:e-p270:32:32-p271:32:32-p272:64:64-i64:64-i128:128-f80:128-n8:16:32:64-S128"
target triple = "x86_64-pc-linux-gnu"

%struct.LogicalRepCommitData = type { i64, i64, i64 }

@.str.1 = private unnamed_addr constant [8 x i8] c"proto.c\00", align 1
@.str.2 = private unnamed_addr constant [40 x i8] c"unrecognized flags %u in commit message\00", align 1
@__func__.logicalrep_read_stream_commit = private unnamed_addr constant [30 x i8] c"logicalrep_read_stream_commit\00", align 1

; Function Attrs: nounwind uwtable
define dso_local i32 @logicalrep_read_stream_commit(ptr noundef %0, ptr noundef %1) #0 {
  %3 = alloca ptr, align 8
  %4 = alloca ptr, align 8
  %5 = alloca i32, align 4
  %6 = alloca i8, align 1
  store ptr %0, ptr %3, align 8
  store ptr %1, ptr %4, align 8
  call void @llvm.lifetime.start.p0(i64 4, ptr %5) #9
  call void @llvm.lifetime.start.p0(i64 1, ptr %6) #9
  %7 = load ptr, ptr %3, align 8
  %8 = call i32 @pq_getmsgint(ptr noundef %7, i32 noundef 4)
  store i32 %8, ptr %5, align 4
  %9 = load ptr, ptr %3, align 8
  %10 = call i32 @pq_getmsgbyte(ptr noundef %9)
  %11 = trunc i32 %10 to i8
  store i8 %11, ptr %6, align 1
  %12 = load i8, ptr %6, align 1
  %13 = zext i8 %12 to i32
  %14 = icmp ne i32 %13, 0
  br i1 %14, label %15, label %28

15:                                               ; preds = %2
  br label %16

16:                                               ; preds = %15
  br i1 true, label %17, label %19

17:                                               ; preds = %16
  %18 = call zeroext i1 @errstart_cold(i32 noundef 21, ptr noundef null) #8
  br i1 %18, label %21, label %25

19:                                               ; preds = %16
  %20 = call zeroext i1 @errstart(i32 noundef 21, ptr noundef null)
  br i1 %20, label %21, label %25

21:                                               ; preds = %19, %17
  %22 = load i8, ptr %6, align 1
  %23 = zext i8 %22 to i32
  %24 = call i32 (ptr, ...) @errmsg_internal(ptr noundef @.str.2, i32 noundef %23)
  call void @errfinish(ptr noundef @.str.1, i32 noundef 1140, ptr noundef @__func__.logicalrep_read_stream_commit)
  br label %25

25:                                               ; preds = %21, %19, %17
  unreachable

26:                                               ; No predecessors!
  br label %27

27:                                               ; preds = %26
  br label %28

28:                                               ; preds = %27, %2
  %29 = load ptr, ptr %3, align 8
  %30 = call i64 @pq_getmsgint64(ptr noundef %29)
  %31 = load ptr, ptr %4, align 8
  %32 = getelementptr inbounds nuw %struct.LogicalRepCommitData, ptr %31, i32 0, i32 0
  store i64 %30, ptr %32, align 8
  %33 = load ptr, ptr %3, align 8
  %34 = call i64 @pq_getmsgint64(ptr noundef %33)
  %35 = load ptr, ptr %4, align 8
  %36 = getelementptr inbounds nuw %struct.LogicalRepCommitData, ptr %35, i32 0, i32 1
  store i64 %34, ptr %36, align 8
  %37 = load ptr, ptr %3, align 8
  %38 = call i64 @pq_getmsgint64(ptr noundef %37)
  %39 = load ptr, ptr %4, align 8
  %40 = getelementptr inbounds nuw %struct.LogicalRepCommitData, ptr %39, i32 0, i32 2
  store i64 %38, ptr %40, align 8
  %41 = load i32, ptr %5, align 4
  call void @llvm.lifetime.end.p0(i64 1, ptr %6) #9
  call void @llvm.lifetime.end.p0(i64 4, ptr %5) #9
  ret i32 %41
}