; Function Attrs: nounwind uwtable
define dso_local i32 @logicalrep_read_stream_commit(ptr noundef %0, ptr noundef writeonly captures(none) %1) local_unnamed_addr #0 {
  %3 = tail call i32 @pq_getmsgint(ptr noundef %0, i32 noundef 4) #8
  %4 = tail call i32 @pq_getmsgbyte(ptr noundef %0) #8
  %5 = and i32 %4, 255
  %.not = icmp eq i32 %5, 0
  br i1 %.not, label %9, label %6

6:                                                ; preds = %2
  %7 = tail call zeroext i1 @errstart_cold(i32 noundef 21, ptr noundef null) #9
  tail call void @llvm.assume(i1 %7)
  %8 = tail call i32 (ptr, ...) @errmsg_internal(ptr noundef nonnull @.str.2, i32 noundef %5) #8
  tail call void @errfinish(ptr noundef nonnull @.str.1, i32 noundef 1140, ptr noundef nonnull @__func__.logicalrep_read_stream_commit) #8
  unreachable

9:                                                ; preds = %2
  %10 = tail call i64 @pq_getmsgint64(ptr noundef %0) #8
  store i64 %10, ptr %1, align 8
  %11 = tail call i64 @pq_getmsgint64(ptr noundef %0) #8
  %12 = getelementptr inbounds nuw i8, ptr %1, i64 8
  store i64 %11, ptr %12, align 8
  %13 = tail call i64 @pq_getmsgint64(ptr noundef %0) #8
  %14 = getelementptr inbounds nuw i8, ptr %1, i64 16
  store i64 %13, ptr %14, align 8
  ret i32 %3
}